target datalayout = "e-m:e-p270:32:32-p271:32:32-p272:64:64-i64:64-i128:128-f80:128-n8:16:32:64-S128"
target triple = "x86_64-unknown-linux-gnu"

%struct.AddressSpace = type { %struct.rcu_head, ptr, ptr, ptr, i32, i32, ptr, %union.anon.0, %union.anon.1 }
%struct.rcu_head = type { ptr, ptr }
%union.anon.0 = type { %struct.QTailQLink }
%struct.QTailQLink = type { ptr, ptr }
%union.anon.1 = type { %struct.QTailQLink }
%struct.SDHCIState = type { %union.anon, %struct.SDBus, %struct.MemoryRegion, %struct.AddressSpace, ptr, ptr, ptr, ptr, ptr, ptr, i32, i16, i16, i32, i16, i16, [4 x i32], i32, i8, i8, i8, i8, i16, i8, i8, i16, i16, i16, i16, i16, i16, i16, i16, i64, i16, i64, i64, i16, ptr, i32, i16, i8, i8, i8, i32, i8, i8, i8, i8 }
%union.anon = type { %struct.PCIDevice }
%struct.PCIDevice = type { %struct.DeviceState, i8, i8, ptr, ptr, ptr, ptr, ptr, i32, %struct.PCIReqIDCache, [64 x i8], [7 x %struct.PCIIORegion], %struct.AddressSpace, %struct.MemoryRegion, %struct.MemoryRegion, ptr, ptr, [3 x ptr], i8, i8, i32, i8, i32, ptr, ptr, ptr, ptr, ptr, ptr, %struct.MemoryRegion, %struct.MemoryRegion, %struct.MemoryRegion, ptr, i8, i32, i8, %struct.PCIExpressDevice, ptr, ptr, i32, i8, %struct.MemoryRegion, i32, ptr, ptr, ptr, ptr, ptr, i32 }
%struct.DeviceState = type { %struct.Object, ptr, ptr, i8, i8, i64, ptr, i32, i8, ptr, %struct.NamedGPIOListHead, %struct.NamedClockListHead, %struct.BusStateHead, i32, i32, i32, %struct.ResettableState, ptr, %struct.MemReentrancyGuard }
%struct.Object = type { ptr, ptr, ptr, i32, ptr }
%struct.NamedGPIOListHead = type { ptr }
%struct.NamedClockListHead = type { ptr }
%struct.BusStateHead = type { ptr }
%struct.ResettableState = type { i32, i8, i8 }
%struct.MemReentrancyGuard = type { i8 }
%struct.PCIReqIDCache = type { ptr, i32 }
%struct.PCIIORegion = type { i64, i64, i8, ptr, ptr }
%struct.PCIExpressDevice = type { i8, i8, i8, i16, %struct.PCIEAERLog, i16, i16, i16, %struct.PCIESriovPF, %struct.PCIESriovVF }
%struct.PCIEAERLog = type { i16, i16, ptr }
%struct.PCIESriovPF = type { i16, [7 x i8], ptr, ptr }
%struct.PCIESriovVF = type { ptr, i16 }
%struct.SDBus = type { %struct.BusState }
%struct.BusState = type { %struct.Object, ptr, ptr, ptr, i32, i8, i8, i32, %union.BusChildHead, %struct.BusStateEntry, %struct.ResettableState }
%union.BusChildHead = type { %struct.QTailQLink }
%struct.BusStateEntry = type { ptr, ptr }
%struct.MemoryRegion = type { %struct.Object, i8, i8, i8, i8, i8, i8, i8, i8, i8, i8, ptr, ptr, ptr, ptr, ptr, ptr, i32, i128, i64, ptr, i64, i8, i8, i8, i8, i8, ptr, i64, i32, %union.anon.2, %union.anon.3, %union.anon.4, ptr, i32, ptr, ptr, i8 }
%union.anon.2 = type { %struct.QTailQLink }
%union.anon.3 = type { %struct.QTailQLink }
%union.anon.4 = type { %struct.QTailQLink }

@.str.35 = private unnamed_addr constant [7 x i8] c"device\00", align 1
@.str.36 = private unnamed_addr constant [101 x i8] c"/home/dtcxzyw/WorkSpace/Projects/compilers/llvm-opt-benchmark/bench/qemu/qemu/include/hw/qdev-core.h\00", align 1
@__func__.DEVICE = private unnamed_addr constant [7 x i8] c"DEVICE\00", align 1

; Function Attrs: nounwind sspstrong uwtable
define internal void @sdhci_set_readonly(ptr noundef %dev, i1 noundef zeroext %level) #0 {
entry:
  %dev.addr = alloca ptr, align 8
  %level.addr = alloca i8, align 1
  %s = alloca ptr, align 8
  store ptr %dev, ptr %dev.addr, align 8
  %frombool = zext i1 %level to i8
  store i8 %frombool, ptr %level.addr, align 1
  %0 = load ptr, ptr %dev.addr, align 8
  store ptr %0, ptr %s, align 8
  %1 = load i8, ptr %level.addr, align 1
  %tobool = trunc i8 %1 to i1
  br i1 %tobool, label %if.then, label %if.else

if.then:                                          ; preds = %entry
  %2 = load ptr, ptr %s, align 8
  %prnsts = getelementptr inbounds %struct.SDHCIState, ptr %2, i32 0, i32 17
  %3 = load i32, ptr %prnsts, align 8
  %and = and i32 %3, -524289
  store i32 %and, ptr %prnsts, align 8
  br label %if.end

if.else:                                          ; preds = %entry
  %4 = load ptr, ptr %s, align 8
  %prnsts1 = getelementptr inbounds %struct.SDHCIState, ptr %4, i32 0, i32 17
  %5 = load i32, ptr %prnsts1, align 8
  %or = or i32 %5, 524288
  store i32 %or, ptr %prnsts1, align 8
  br label %if.end

if.end:                                           ; preds = %if.else, %if.then
  ret void
}

; Function Attrs: nounwind sspstrong uwtable
define internal ptr @DEVICE(ptr noundef %obj) #0 {
entry:
  %obj.addr = alloca ptr, align 8
  store ptr %obj, ptr %obj.addr, align 8
  %0 = load ptr, ptr %obj.addr, align 8
  %call = call ptr @object_dynamic_cast_assert(ptr noundef %0, ptr noundef @.str.35, ptr noundef @.str.36, i32 noundef 77, ptr noundef @__func__.DEVICE)
  ret ptr %call
}

; Function Attrs: nounwind sspstrong uwtable
define internal void @sdhci_reset(ptr noundef %s) #0 {
entry:
  %s.addr = alloca ptr, align 8
  %dev = alloca ptr, align 8
  store ptr %s, ptr %s.addr, align 8
  %0 = load ptr, ptr %s.addr, align 8
  %call = call ptr @DEVICE(ptr noundef %0)
  store ptr %call, ptr %dev, align 8
  %1 = load ptr, ptr %s.addr, align 8
  %insert_timer = getelementptr inbounds %struct.SDHCIState, ptr %1, i32 0, i32 7
  %2 = load ptr, ptr %insert_timer, align 16
  call void @timer_del(ptr noundef %2)
  %3 = load ptr, ptr %s.addr, align 8
  %transfer_timer = getelementptr inbounds %struct.SDHCIState, ptr %3, i32 0, i32 8
  %4 = load ptr, ptr %transfer_timer, align 8
  call void @timer_del(ptr noundef %4)
  %5 = load ptr, ptr %s.addr, align 8
  %sdmasysad = getelementptr inbounds %struct.SDHCIState, ptr %5, i32 0, i32 10
  %6 = load ptr, ptr %s.addr, align 8
  %capareg = getelementptr inbounds %struct.SDHCIState, ptr %6, i32 0, i32 35
  %7 = ptrtoint ptr %capareg to i64
  %8 = load ptr, ptr %s.addr, align 8
  %sdmasysad1 = getelementptr inbounds %struct.SDHCIState, ptr %8, i32 0, i32 10
  %9 = ptrtoint ptr %sdmasysad1 to i64
  %sub = sub i64 %7, %9
  call void @llvm.memset.p0.i64(ptr align 8 %sdmasysad, i8 0, i64 %sub, i1 false)
  %10 = load ptr, ptr %dev, align 8
  %11 = load ptr, ptr %s.addr, align 8
  %sdbus = getelementptr inbounds %struct.SDHCIState, ptr %11, i32 0, i32 1
  %call2 = call zeroext i1 @sdbus_get_inserted(ptr noundef %sdbus)
  call void @sdhci_set_inserted(ptr noundef %10, i1 noundef zeroext %call2)
  %12 = load ptr, ptr %dev, align 8
  %13 = load ptr, ptr %s.addr, align 8
  %sdbus3 = getelementptr inbounds %struct.SDHCIState, ptr %13, i32 0, i32 1
  %call4 = call zeroext i1 @sdbus_get_readonly(ptr noundef %sdbus3)
  call void @sdhci_set_readonly(ptr noundef %12, i1 noundef zeroext %call4)
  %14 = load ptr, ptr %s.addr, align 8
  %data_count = getelementptr inbounds %struct.SDHCIState, ptr %14, i32 0, i32 40
  store i16 0, ptr %data_count, align 4
  %15 = load ptr, ptr %s.addr, align 8
  %stopped_state = getelementptr inbounds %struct.SDHCIState, ptr %15, i32 0, i32 41
  store i8 0, ptr %stopped_state, align 2
  %16 = load ptr, ptr %s.addr, align 8
  %pending_insert_state = getelementptr inbounds %struct.SDHCIState, ptr %16, i32 0, i32 42
  store i8 0, ptr %pending_insert_state, align 1
  ret void
}

; Function Attrs: nounwind sspstrong uwtable
define internal void @sdhci_poweron_reset(ptr noundef %dev) #0 {
entry:
  %dev.addr = alloca ptr, align 8
  %s = alloca ptr, align 8
  store ptr %dev, ptr %dev.addr, align 8
  %0 = load ptr, ptr %dev.addr, align 8
  store ptr %0, ptr %s, align 8
  %1 = load ptr, ptr %s, align 8
  call void @sdhci_reset(ptr noundef %1)
  %2 = load ptr, ptr %s, align 8
  %pending_insert_quirk = getelementptr inbounds %struct.SDHCIState, ptr %2, i32 0, i32 43
  %3 = load i8, ptr %pending_insert_quirk, align 16
  %tobool = trunc i8 %3 to i1
  br i1 %tobool, label %if.then, label %if.end

if.then:                                          ; preds = %entry
  %4 = load ptr, ptr %s, align 8
  %pending_insert_state = getelementptr inbounds %struct.SDHCIState, ptr %4, i32 0, i32 42
  store i8 1, ptr %pending_insert_state, align 1
  br label %if.end

if.end:                                           ; preds = %if.then, %entry
  ret void
}