; Function Attrs: nounwind sspstrong uwtable
define internal void @sdhci_poweron_reset(ptr noundef %dev) #0 {
entry:
  %call.i.i = tail call ptr @object_dynamic_cast_assert(ptr noundef %dev, ptr noundef nonnull @.str.35, ptr noundef nonnull @.str.36, i32 noundef 77, ptr noundef nonnull @__func__.DEVICE) #12
  %insert_timer.i = getelementptr inbounds nuw i8, ptr %dev, i64 3120
  %0 = load ptr, ptr %insert_timer.i, align 16
  tail call void @timer_del(ptr noundef %0) #12
  %transfer_timer.i = getelementptr inbounds nuw i8, ptr %dev, i64 3128
  %1 = load ptr, ptr %transfer_timer.i, align 8
  tail call void @timer_del(ptr noundef %1) #12
  %sdmasysad.i = getelementptr inbounds nuw i8, ptr %dev, i64 3144
  tail call void @llvm.memset.p0.i64(ptr noundef nonnull align 8 dereferenceable(80) %sdmasysad.i, i8 0, i64 80, i1 false)
  %sdbus.i = getelementptr inbounds nuw i8, ptr %dev, i64 2608
  %call2.i = tail call zeroext i1 @sdbus_get_inserted(ptr noundef nonnull %sdbus.i) #12
  tail call void @sdhci_set_inserted(ptr noundef %call.i.i, i1 noundef zeroext %call2.i)
  %call4.i = tail call zeroext i1 @sdbus_get_readonly(ptr noundef nonnull %sdbus.i) #12
  %prnsts.i.i = getelementptr inbounds nuw i8, ptr %call.i.i, i64 3176
  %2 = load i32, ptr %prnsts.i.i, align 8
  %and.i.i = and i32 %2, -524289
  %masksel.i.i = select i1 %call4.i, i32 0, i32 524288
  %or.sink.i.i = or disjoint i32 %and.i.i, %masksel.i.i
  store i32 %or.sink.i.i, ptr %prnsts.i.i, align 8
  %data_count.i = getelementptr inbounds nuw i8, ptr %dev, i64 3260
  store i16 0, ptr %data_count.i, align 4
  %stopped_state.i = getelementptr inbounds nuw i8, ptr %dev, i64 3262
  store i8 0, ptr %stopped_state.i, align 2
  %pending_insert_state.i = getelementptr inbounds nuw i8, ptr %dev, i64 3263
  %pending_insert_quirk = getelementptr inbounds nuw i8, ptr %dev, i64 3264
  %3 = load i8, ptr %pending_insert_quirk, align 16
  %spec.store.select = and i8 %3, 1
  store i8 %spec.store.select, ptr %pending_insert_state.i, align 1
  ret void
}